target datalayout = "e-m:e-p270:32:32-p271:32:32-p272:64:64-i64:64-i128:128-f80:128-n8:16:32:64-S128"
target triple = "x86_64-unknown-linux-gnu"

%"union.eastl::internal::functor_storage_alignment" = type { { i64, i64 } }
%"struct.eastl::internal::functor_storage.50" = type { %union.anon.51 }
%union.anon.51 = type { %"union.eastl::internal::functor_storage_alignment" }

@_ZTIZ22TestFixedFunctionBasicvE7Functor_2 = internal constant { ptr, ptr } { ptr getelementptr inbounds (ptr, ptr @_ZTVN10__cxxabiv117__class_type_infoE, i64 2), ptr @_ZTSZ22TestFixedFunctionBasicvE7Functor_2 }, align 8

; Function Attrs: mustprogress nounwind uwtable
define internal noundef nonnull align 1 dereferenceable(1) ptr @_ZN5eastl4moveIRZ22TestFixedFunctionBasicvE7Functor_2EEONS_16remove_referenceIT_E4typeEOS4_(ptr noundef nonnull align 1 dereferenceable(1) %x) #1 {
entry:
  %x.addr = alloca ptr, align 8
  store ptr %x, ptr %x.addr, align 8
  %0 = load ptr, ptr %x.addr, align 8
  ret ptr %0
}

; Function Attrs: mustprogress nounwind uwtable
define internal void @_ZN5eastl8internal20function_base_detailILi0EE21function_manager_baseIZ22TestFixedFunctionBasicvE7Functor_2vE11MoveFunctorERNS0_15functor_storageILi0EEES8_(ptr noundef nonnull align 8 dereferenceable(16) %to, ptr noundef nonnull align 8 dereferenceable(16) %from) #1 align 2 {
entry:
  %to.addr = alloca ptr, align 8
  %from.addr = alloca ptr, align 8
  store ptr %to, ptr %to.addr, align 8
  store ptr %from, ptr %from.addr, align 8
  %0 = load ptr, ptr %to.addr, align 8
  %call = call noundef ptr @_ZN5eastl8internal20function_base_detailILi0EE21function_manager_baseIZ22TestFixedFunctionBasicvE7Functor_2vE13GetFunctorPtrERKNS0_15functor_storageILi0EEE(ptr noundef nonnull align 8 dereferenceable(16) %0) #7
  %1 = load ptr, ptr %from.addr, align 8
  %call1 = call noundef ptr @_ZN5eastl8internal20function_base_detailILi0EE21function_manager_baseIZ22TestFixedFunctionBasicvE7Functor_2vE13GetFunctorPtrERKNS0_15functor_storageILi0EEE(ptr noundef nonnull align 8 dereferenceable(16) %1) #7
  %call2 = call noundef nonnull align 1 dereferenceable(1) ptr @_ZN5eastl4moveIRZ22TestFixedFunctionBasicvE7Functor_2EEONS_16remove_referenceIT_E4typeEOS4_(ptr noundef nonnull align 1 dereferenceable(1) %call1) #7
  ret void
}

; Function Attrs: mustprogress nounwind uwtable
define internal void @_ZN5eastl8internal20function_base_detailILi0EE21function_manager_baseIZ22TestFixedFunctionBasicvE7Functor_2vE11CopyFunctorERNS0_15functor_storageILi0EEERKS7_(ptr noundef nonnull align 8 dereferenceable(16) %to, ptr noundef nonnull align 8 dereferenceable(16) %from) #1 align 2 {
entry:
  %to.addr = alloca ptr, align 8
  %from.addr = alloca ptr, align 8
  store ptr %to, ptr %to.addr, align 8
  store ptr %from, ptr %from.addr, align 8
  %0 = load ptr, ptr %to.addr, align 8
  %call = call noundef ptr @_ZN5eastl8internal20function_base_detailILi0EE21function_manager_baseIZ22TestFixedFunctionBasicvE7Functor_2vE13GetFunctorPtrERKNS0_15functor_storageILi0EEE(ptr noundef nonnull align 8 dereferenceable(16) %0) #7
  %1 = load ptr, ptr %from.addr, align 8
  %call1 = call noundef ptr @_ZN5eastl8internal20function_base_detailILi0EE21function_manager_baseIZ22TestFixedFunctionBasicvE7Functor_2vE13GetFunctorPtrERKNS0_15functor_storageILi0EEE(ptr noundef nonnull align 8 dereferenceable(16) %1) #7
  ret void
}

; Function Attrs: mustprogress nounwind uwtable
define internal void @_ZN5eastl8internal20function_base_detailILi0EE21function_manager_baseIZ22TestFixedFunctionBasicvE7Functor_2vE15DestructFunctorERNS0_15functor_storageILi0EEE(ptr noundef nonnull align 8 dereferenceable(16) %storage) #1 align 2 {
entry:
  %storage.addr = alloca ptr, align 8
  store ptr %storage, ptr %storage.addr, align 8
  %0 = load ptr, ptr %storage.addr, align 8
  %call = call noundef ptr @_ZN5eastl8internal20function_base_detailILi0EE21function_manager_baseIZ22TestFixedFunctionBasicvE7Functor_2vE13GetFunctorPtrERKNS0_15functor_storageILi0EEE(ptr noundef nonnull align 8 dereferenceable(16) %0) #7
  ret void
}

; Function Attrs: noreturn nounwind uwtable
define linkonce_odr hidden void @__clang_call_terminate(ptr noundef %0) #4 comdat {
  %2 = call ptr @__cxa_begin_catch(ptr %0) #7
  call void @_ZSt9terminatev() #8
  unreachable
}

; Function Attrs: mustprogress nounwind uwtable
define internal noundef nonnull align 1 dereferenceable(1) ptr @_ZNK5eastl8internal15functor_storageILi0EE17GetStorageTypeRefIZ22TestFixedFunctionBasicvE7Functor_2EERT_v(ptr noundef nonnull align 8 dereferenceable(16) %this) #1 align 2 {
entry:
  %this.addr = alloca ptr, align 8
  store ptr %this, ptr %this.addr, align 8
  %this1 = load ptr, ptr %this.addr, align 8
  %0 = getelementptr inbounds %"struct.eastl::internal::functor_storage.50", ptr %this1, i32 0, i32 0
  %arrayidx = getelementptr inbounds [16 x i8], ptr %0, i64 0, i64 0
  ret ptr %arrayidx
}

; Function Attrs: mustprogress nounwind uwtable
define internal noundef ptr @_ZN5eastl8internal20function_base_detailILi0EE21function_manager_baseIZ22TestFixedFunctionBasicvE7Functor_2vE7ManagerEPvS6_NS2_17ManagerOperationsE(ptr noundef %to, ptr noundef %from, i32 noundef %ops) #1 align 2 personality ptr @__gxx_personality_v0 {
entry:
  %to.addr = alloca ptr, align 8
  %from.addr = alloca ptr, align 8
  %ops.addr = alloca i32, align 4
  store ptr %to, ptr %to.addr, align 8
  store ptr %from, ptr %from.addr, align 8
  store i32 %ops, ptr %ops.addr, align 4
  %0 = load i32, ptr %ops.addr, align 4
  switch i32 %0, label %sw.default [
    i32 0, label %sw.bb
    i32 1, label %sw.bb1
    i32 2, label %sw.bb3
  ]

sw.bb:                                            ; preds = %entry
  %1 = load ptr, ptr %to.addr, align 8
  invoke void @_ZN5eastl8internal20function_base_detailILi0EE21function_manager_baseIZ22TestFixedFunctionBasicvE7Functor_2vE15DestructFunctorERNS0_15functor_storageILi0EEE(ptr noundef nonnull align 8 dereferenceable(16) %1)
          to label %invoke.cont unwind label %terminate.lpad

invoke.cont:                                      ; preds = %sw.bb
  br label %sw.epilog

sw.bb1:                                           ; preds = %entry
  %2 = load ptr, ptr %to.addr, align 8
  %3 = load ptr, ptr %from.addr, align 8
  invoke void @_ZN5eastl8internal20function_base_detailILi0EE21function_manager_baseIZ22TestFixedFunctionBasicvE7Functor_2vE11CopyFunctorERNS0_15functor_storageILi0EEERKS7_(ptr noundef nonnull align 8 dereferenceable(16) %2, ptr noundef nonnull align 8 dereferenceable(16) %3)
          to label %invoke.cont2 unwind label %terminate.lpad

invoke.cont2:                                     ; preds = %sw.bb1
  br label %sw.epilog

sw.bb3:                                           ; preds = %entry
  %4 = load ptr, ptr %to.addr, align 8
  %5 = load ptr, ptr %from.addr, align 8
  call void @_ZN5eastl8internal20function_base_detailILi0EE21function_manager_baseIZ22TestFixedFunctionBasicvE7Functor_2vE11MoveFunctorERNS0_15functor_storageILi0EEES8_(ptr noundef nonnull align 8 dereferenceable(16) %4, ptr noundef nonnull align 8 dereferenceable(16) %5) #7
  %6 = load ptr, ptr %from.addr, align 8
  invoke void @_ZN5eastl8internal20function_base_detailILi0EE21function_manager_baseIZ22TestFixedFunctionBasicvE7Functor_2vE15DestructFunctorERNS0_15functor_storageILi0EEE(ptr noundef nonnull align 8 dereferenceable(16) %6)
          to label %invoke.cont4 unwind label %terminate.lpad

invoke.cont4:                                     ; preds = %sw.bb3
  br label %sw.epilog

sw.default:                                       ; preds = %entry
  br label %sw.epilog

sw.epilog:                                        ; preds = %sw.default, %invoke.cont4, %invoke.cont2, %invoke.cont
  ret ptr null

terminate.lpad:                                   ; preds = %sw.bb3, %sw.bb1, %sw.bb
  %7 = landingpad { ptr, i32 }
          catch ptr null
  %8 = extractvalue { ptr, i32 } %7, 0
  call void @__clang_call_terminate(ptr %8) #8
  unreachable
}

; Function Attrs: mustprogress nounwind uwtable
define internal noundef ptr @_ZN5eastl8internal20function_base_detailILi0EE21function_manager_baseIZ22TestFixedFunctionBasicvE7Functor_2vE13GetFunctorPtrERKNS0_15functor_storageILi0EEE(ptr noundef nonnull align 8 dereferenceable(16) %storage) #1 align 2 personality ptr @__gxx_personality_v0 {
entry:
  %storage.addr = alloca ptr, align 8
  store ptr %storage, ptr %storage.addr, align 8
  %0 = load ptr, ptr %storage.addr, align 8
  %call = invoke noundef nonnull align 1 dereferenceable(1) ptr @_ZNK5eastl8internal15functor_storageILi0EE17GetStorageTypeRefIZ22TestFixedFunctionBasicvE7Functor_2EERT_v(ptr noundef nonnull align 8 dereferenceable(16) %0)
          to label %invoke.cont unwind label %terminate.lpad

invoke.cont:                                      ; preds = %entry
  ret ptr %call

terminate.lpad:                                   ; preds = %entry
  %1 = landingpad { ptr, i32 }
          catch ptr null
  %2 = extractvalue { ptr, i32 } %1, 0
  call void @__clang_call_terminate(ptr %2) #8
  unreachable
}

; Function Attrs: mustprogress nounwind uwtable
define internal noundef ptr @_ZN5eastl8internal20function_base_detailILi0EE16function_managerIZ22TestFixedFunctionBasicvE7Functor_2iJiEE11GetTypeInfoEv() #1 align 2 {
entry:
  ret ptr @_ZTIZ22TestFixedFunctionBasicvE7Functor_2
}

; Function Attrs: mustprogress nounwind uwtable
define internal noundef ptr @_ZN5eastl8internal20function_base_detailILi0EE16function_managerIZ22TestFixedFunctionBasicvE7Functor_2iJiEE7ManagerEPvS6_NS2_17ManagerOperationsE(ptr noundef %to, ptr noundef %from, i32 noundef %ops) #1 align 2 {
entry:
  %retval = alloca ptr, align 8
  %to.addr = alloca ptr, align 8
  %from.addr = alloca ptr, align 8
  %ops.addr = alloca i32, align 4
  store ptr %to, ptr %to.addr, align 8
  store ptr %from, ptr %from.addr, align 8
  store i32 %ops, ptr %ops.addr, align 4
  %0 = load i32, ptr %ops.addr, align 4
  switch i32 %0, label %sw.default [
    i32 3, label %sw.bb
    i32 4, label %sw.bb1
  ]

sw.bb:                                            ; preds = %entry
  %call = call noundef ptr @_ZN5eastl8internal20function_base_detailILi0EE16function_managerIZ22TestFixedFunctionBasicvE7Functor_2iJiEE11GetTypeInfoEv() #7
  store ptr %call, ptr %retval, align 8
  br label %return

sw.bb1:                                           ; preds = %entry
  %1 = load ptr, ptr %to.addr, align 8
  %call2 = call noundef ptr @_ZN5eastl8internal20function_base_detailILi0EE21function_manager_baseIZ22TestFixedFunctionBasicvE7Functor_2vE13GetFunctorPtrERKNS0_15functor_storageILi0EEE(ptr noundef nonnull align 8 dereferenceable(16) %1) #7
  store ptr %call2, ptr %retval, align 8
  br label %return

sw.default:                                       ; preds = %entry
  %2 = load ptr, ptr %to.addr, align 8
  %3 = load ptr, ptr %from.addr, align 8
  %4 = load i32, ptr %ops.addr, align 4
  %call3 = call noundef ptr @_ZN5eastl8internal20function_base_detailILi0EE21function_manager_baseIZ22TestFixedFunctionBasicvE7Functor_2vE7ManagerEPvS6_NS2_17ManagerOperationsE(ptr noundef %2, ptr noundef %3, i32 noundef %4) #7
  store ptr %call3, ptr %retval, align 8
  br label %return

return:                                           ; preds = %sw.default, %sw.bb1, %sw.bb
  %5 = load ptr, ptr %retval, align 8
  ret ptr %5
}